target datalayout = "e-m:e-p270:32:32-p271:32:32-p272:64:64-i64:64-i128:128-f80:128-n8:16:32:64-S128"
target triple = "x86_64-pc-linux-gnu"

%"class.std::__1::pmr::memory_resource" = type { ptr }
%"class.std::__1::pmr::unsynchronized_pool_resource::__adhoc_pool" = type { ptr }
%"struct.std::__1::pmr::unsynchronized_pool_resource::__adhoc_pool::__chunk_footer" = type { ptr, ptr, i64 }
%"class.std::__1::pmr::unsynchronized_pool_resource" = type { %"class.std::__1::pmr::memory_resource", ptr, %"class.std::__1::pmr::unsynchronized_pool_resource::__adhoc_pool", ptr, i32, i32 }
%"class.std::__1::pmr::unsynchronized_pool_resource::__fixed_pool" = type { ptr, ptr }
%"struct.std::__1::pmr::unsynchronized_pool_resource::__fixed_pool::__vacancy_header" = type { ptr }

; Function Attrs: mustprogress uwtable
define linkonce_odr hidden void @_ZNSt3__13pmr15memory_resource10deallocateB8ne210000EPvmm(ptr noundef nonnull align 8 dereferenceable(8) %0, ptr noundef nonnull %1, i64 noundef %2, i64 noundef %3) #5 comdat align 2 {
  %5 = alloca ptr, align 8
  %6 = alloca ptr, align 8
  %7 = alloca i64, align 8
  %8 = alloca i64, align 8
  store ptr %0, ptr %5, align 8, !tbaa !4
  store ptr %1, ptr %6, align 8, !tbaa !29
  store i64 %2, ptr %7, align 8, !tbaa !30
  store i64 %3, ptr %8, align 8, !tbaa !30
  %9 = load ptr, ptr %5, align 8
  %10 = load ptr, ptr %6, align 8, !tbaa !29
  %11 = load i64, ptr %7, align 8, !tbaa !30
  %12 = load i64, ptr %8, align 8, !tbaa !30
  %13 = load ptr, ptr %9, align 8, !tbaa !31
  %14 = getelementptr inbounds ptr, ptr %13, i64 3
  %15 = load ptr, ptr %14, align 8
  call void %15(ptr noundef nonnull align 8 dereferenceable(8) %9, ptr noundef %10, i64 noundef %11, i64 noundef %12)
  ret void
}

; Function Attrs: mustprogress nounwind uwtable
define linkonce_odr hidden noundef i64 @_ZNSt3__13pmr28unsynchronized_pool_resource12__adhoc_pool14__chunk_footer17__allocation_sizeEv(ptr noundef nonnull align 8 dereferenceable(24) %0) #0 comdat align 2 {
  %2 = alloca ptr, align 8
  store ptr %0, ptr %2, align 8, !tbaa !24
  %3 = load ptr, ptr %2, align 8
  %4 = getelementptr inbounds nuw %"struct.std::__1::pmr::unsynchronized_pool_resource::__adhoc_pool::__chunk_footer", ptr %3, i32 0, i32 1
  %5 = load ptr, ptr %4, align 8, !tbaa !25
  %6 = ptrtoint ptr %3 to i64
  %7 = ptrtoint ptr %5 to i64
  %8 = sub i64 %6, %7
  %9 = add i64 %8, 24
  ret i64 %9
}

; Function Attrs: mustprogress nounwind uwtable
define linkonce_odr hidden void @_ZNSt3__13pmr28unsynchronized_pool_resource12__fixed_pool10__evacuateEPv(ptr noundef nonnull align 8 dereferenceable(16) %0, ptr noundef %1) #0 comdat align 2 {
  %3 = alloca ptr, align 8
  %4 = alloca ptr, align 8
  %5 = alloca ptr, align 8
  store ptr %0, ptr %3, align 8, !tbaa !53
  store ptr %1, ptr %4, align 8, !tbaa !29
  %6 = load ptr, ptr %3, align 8
  call void @llvm.lifetime.start.p0(i64 8, ptr %5) #3
  %7 = load ptr, ptr %4, align 8, !tbaa !29
  store ptr %7, ptr %5, align 8, !tbaa !68
  %8 = getelementptr inbounds nuw %"class.std::__1::pmr::unsynchronized_pool_resource::__fixed_pool", ptr %6, i32 0, i32 1
  %9 = load ptr, ptr %8, align 8, !tbaa !54
  %10 = load ptr, ptr %5, align 8, !tbaa !68
  %11 = getelementptr inbounds nuw %"struct.std::__1::pmr::unsynchronized_pool_resource::__fixed_pool::__vacancy_header", ptr %10, i32 0, i32 0
  store ptr %9, ptr %11, align 8, !tbaa !66
  %12 = load ptr, ptr %5, align 8, !tbaa !68
  %13 = getelementptr inbounds nuw %"class.std::__1::pmr::unsynchronized_pool_resource::__fixed_pool", ptr %6, i32 0, i32 1
  store ptr %12, ptr %13, align 8, !tbaa !54
  call void @llvm.lifetime.end.p0(i64 8, ptr %5) #3
  ret void
}

; Function Attrs: mustprogress uwtable
define dso_local void @_ZNSt3__13pmr28unsynchronized_pool_resource12__adhoc_pool15__do_deallocateEPNS0_15memory_resourceEPvmm(ptr noundef nonnull align 8 dereferenceable(8) %0, ptr noundef %1, ptr noundef %2, i64 noundef %3, i64 noundef %4) #5 align 2 {
  %6 = alloca ptr, align 8
  %7 = alloca ptr, align 8
  %8 = alloca ptr, align 8
  %9 = alloca i64, align 8
  %10 = alloca i64, align 8
  %11 = alloca ptr, align 8
  %12 = alloca ptr, align 8
  %13 = alloca i32, align 4
  %14 = alloca ptr, align 8
  store ptr %0, ptr %6, align 8, !tbaa !15
  store ptr %1, ptr %7, align 8, !tbaa !4
  store ptr %2, ptr %8, align 8, !tbaa !29
  store i64 %3, ptr %9, align 8, !tbaa !30
  store i64 %4, ptr %10, align 8, !tbaa !30
  %15 = load ptr, ptr %6, align 8
  %16 = getelementptr inbounds nuw %"class.std::__1::pmr::unsynchronized_pool_resource::__adhoc_pool", ptr %15, i32 0, i32 0
  %17 = load ptr, ptr %16, align 8, !tbaa !17
  %18 = getelementptr inbounds nuw %"struct.std::__1::pmr::unsynchronized_pool_resource::__adhoc_pool::__chunk_footer", ptr %17, i32 0, i32 1
  %19 = load ptr, ptr %18, align 8, !tbaa !25
  %20 = load ptr, ptr %8, align 8, !tbaa !29
  %21 = icmp eq ptr %19, %20
  br i1 %21, label %22, label %38

22:                                               ; preds = %5
  call void @llvm.lifetime.start.p0(i64 8, ptr %11) #3
  %23 = getelementptr inbounds nuw %"class.std::__1::pmr::unsynchronized_pool_resource::__adhoc_pool", ptr %15, i32 0, i32 0
  %24 = load ptr, ptr %23, align 8, !tbaa !17
  %25 = getelementptr inbounds nuw %"struct.std::__1::pmr::unsynchronized_pool_resource::__adhoc_pool::__chunk_footer", ptr %24, i32 0, i32 0
  %26 = load ptr, ptr %25, align 8, !tbaa !20
  store ptr %26, ptr %11, align 8, !tbaa !24
  %27 = load ptr, ptr %7, align 8, !tbaa !4
  %28 = load ptr, ptr %8, align 8, !tbaa !29
  %29 = getelementptr inbounds nuw %"class.std::__1::pmr::unsynchronized_pool_resource::__adhoc_pool", ptr %15, i32 0, i32 0
  %30 = load ptr, ptr %29, align 8, !tbaa !17
  %31 = call noundef i64 @_ZNSt3__13pmr28unsynchronized_pool_resource12__adhoc_pool14__chunk_footer17__allocation_sizeEv(ptr noundef nonnull align 8 dereferenceable(24) %30)
  %32 = getelementptr inbounds nuw %"class.std::__1::pmr::unsynchronized_pool_resource::__adhoc_pool", ptr %15, i32 0, i32 0
  %33 = load ptr, ptr %32, align 8, !tbaa !17
  %34 = getelementptr inbounds nuw %"struct.std::__1::pmr::unsynchronized_pool_resource::__adhoc_pool::__chunk_footer", ptr %33, i32 0, i32 2
  %35 = load i64, ptr %34, align 8, !tbaa !26
  call void @_ZNSt3__13pmr15memory_resource10deallocateB8ne210000EPvmm(ptr noundef nonnull align 8 dereferenceable(8) %27, ptr noundef %28, i64 noundef %31, i64 noundef %35)
  %36 = load ptr, ptr %11, align 8, !tbaa !24
  %37 = getelementptr inbounds nuw %"class.std::__1::pmr::unsynchronized_pool_resource::__adhoc_pool", ptr %15, i32 0, i32 0
  store ptr %36, ptr %37, align 8, !tbaa !17
  call void @llvm.lifetime.end.p0(i64 8, ptr %11) #3
  br label %83

38:                                               ; preds = %5
  call void @llvm.lifetime.start.p0(i64 8, ptr %12) #3
  %39 = getelementptr inbounds nuw %"class.std::__1::pmr::unsynchronized_pool_resource::__adhoc_pool", ptr %15, i32 0, i32 0
  %40 = load ptr, ptr %39, align 8, !tbaa !17
  store ptr %40, ptr %12, align 8, !tbaa !24
  br label %41

41:                                               ; preds = %76, %38
  %42 = load ptr, ptr %12, align 8, !tbaa !24
  %43 = getelementptr inbounds nuw %"struct.std::__1::pmr::unsynchronized_pool_resource::__adhoc_pool::__chunk_footer", ptr %42, i32 0, i32 0
  %44 = load ptr, ptr %43, align 8, !tbaa !20
  %45 = icmp ne ptr %44, null
  br i1 %45, label %47, label %46

46:                                               ; preds = %41
  store i32 2, ptr %13, align 4
  br label %80

47:                                               ; preds = %41
  %48 = load ptr, ptr %12, align 8, !tbaa !24
  %49 = getelementptr inbounds nuw %"struct.std::__1::pmr::unsynchronized_pool_resource::__adhoc_pool::__chunk_footer", ptr %48, i32 0, i32 0
  %50 = load ptr, ptr %49, align 8, !tbaa !20
  %51 = getelementptr inbounds nuw %"struct.std::__1::pmr::unsynchronized_pool_resource::__adhoc_pool::__chunk_footer", ptr %50, i32 0, i32 1
  %52 = load ptr, ptr %51, align 8, !tbaa !25
  %53 = load ptr, ptr %8, align 8, !tbaa !29
  %54 = icmp eq ptr %52, %53
  br i1 %54, label %55, label %75

55:                                               ; preds = %47
  call void @llvm.lifetime.start.p0(i64 8, ptr %14) #3
  %56 = load ptr, ptr %12, align 8, !tbaa !24
  %57 = getelementptr inbounds nuw %"struct.std::__1::pmr::unsynchronized_pool_resource::__adhoc_pool::__chunk_footer", ptr %56, i32 0, i32 0
  %58 = load ptr, ptr %57, align 8, !tbaa !20
  %59 = getelementptr inbounds nuw %"struct.std::__1::pmr::unsynchronized_pool_resource::__adhoc_pool::__chunk_footer", ptr %58, i32 0, i32 0
  %60 = load ptr, ptr %59, align 8, !tbaa !20
  store ptr %60, ptr %14, align 8, !tbaa !24
  %61 = load ptr, ptr %7, align 8, !tbaa !4
  %62 = load ptr, ptr %8, align 8, !tbaa !29
  %63 = load ptr, ptr %12, align 8, !tbaa !24
  %64 = getelementptr inbounds nuw %"struct.std::__1::pmr::unsynchronized_pool_resource::__adhoc_pool::__chunk_footer", ptr %63, i32 0, i32 0
  %65 = load ptr, ptr %64, align 8, !tbaa !20
  %66 = call noundef i64 @_ZNSt3__13pmr28unsynchronized_pool_resource12__adhoc_pool14__chunk_footer17__allocation_sizeEv(ptr noundef nonnull align 8 dereferenceable(24) %65)
  %67 = load ptr, ptr %12, align 8, !tbaa !24
  %68 = getelementptr inbounds nuw %"struct.std::__1::pmr::unsynchronized_pool_resource::__adhoc_pool::__chunk_footer", ptr %67, i32 0, i32 0
  %69 = load ptr, ptr %68, align 8, !tbaa !20
  %70 = getelementptr inbounds nuw %"struct.std::__1::pmr::unsynchronized_pool_resource::__adhoc_pool::__chunk_footer", ptr %69, i32 0, i32 2
  %71 = load i64, ptr %70, align 8, !tbaa !26
  call void @_ZNSt3__13pmr15memory_resource10deallocateB8ne210000EPvmm(ptr noundef nonnull align 8 dereferenceable(8) %61, ptr noundef %62, i64 noundef %66, i64 noundef %71)
  %72 = load ptr, ptr %14, align 8, !tbaa !24
  %73 = load ptr, ptr %12, align 8, !tbaa !24
  %74 = getelementptr inbounds nuw %"struct.std::__1::pmr::unsynchronized_pool_resource::__adhoc_pool::__chunk_footer", ptr %73, i32 0, i32 0
  store ptr %72, ptr %74, align 8, !tbaa !20
  store i32 1, ptr %13, align 4
  call void @llvm.lifetime.end.p0(i64 8, ptr %14) #3
  br label %80

75:                                               ; preds = %47
  br label %76

76:                                               ; preds = %75
  %77 = load ptr, ptr %12, align 8, !tbaa !24
  %78 = getelementptr inbounds nuw %"struct.std::__1::pmr::unsynchronized_pool_resource::__adhoc_pool::__chunk_footer", ptr %77, i32 0, i32 0
  %79 = load ptr, ptr %78, align 8, !tbaa !20
  store ptr %79, ptr %12, align 8, !tbaa !24
  br label %41, !llvm.loop !33

80:                                               ; preds = %55, %46
  call void @llvm.lifetime.end.p0(i64 8, ptr %12) #3
  %81 = load i32, ptr %13, align 4
  switch i32 %81, label %84 [
    i32 2, label %82
    i32 1, label %83
  ]

82:                                               ; preds = %80
  br label %83

83:                                               ; preds = %80, %82, %22
  ret void

84:                                               ; preds = %80
  unreachable
}

; Function Attrs: mustprogress nounwind uwtable
define dso_local noundef i32 @_ZNKSt3__13pmr28unsynchronized_pool_resource12__pool_indexEmm(ptr noundef nonnull align 8 dereferenceable(40) %0, i64 noundef %1, i64 noundef %2) #0 align 2 {
  %4 = alloca i32, align 4
  %5 = alloca ptr, align 8
  %6 = alloca i64, align 8
  %7 = alloca i64, align 8
  %8 = alloca i32, align 4
  store ptr %0, ptr %5, align 8, !tbaa !34
  store i64 %1, ptr %6, align 8, !tbaa !30
  store i64 %2, ptr %7, align 8, !tbaa !30
  %9 = load ptr, ptr %5, align 8
  %10 = load i64, ptr %7, align 8, !tbaa !30
  %11 = icmp ugt i64 %10, 16
  br i1 %11, label %19, label %12

12:                                               ; preds = %3
  %13 = load i64, ptr %6, align 8, !tbaa !30
  %14 = getelementptr inbounds nuw %"class.std::__1::pmr::unsynchronized_pool_resource", ptr %9, i32 0, i32 4
  %15 = load i32, ptr %14, align 8, !tbaa !38
  %16 = zext i32 %15 to i64
  %17 = shl i64 1, %16
  %18 = icmp ugt i64 %13, %17
  br i1 %18, label %19, label %22

19:                                               ; preds = %12, %3
  %20 = getelementptr inbounds nuw %"class.std::__1::pmr::unsynchronized_pool_resource", ptr %9, i32 0, i32 4
  %21 = load i32, ptr %20, align 8, !tbaa !38
  store i32 %21, ptr %4, align 4
  br label %46

22:                                               ; preds = %12
  call void @llvm.lifetime.start.p0(i64 4, ptr %8) #3
  store i32 0, ptr %8, align 4, !tbaa !36
  %23 = load i64, ptr %6, align 8, !tbaa !30
  %24 = load i64, ptr %7, align 8, !tbaa !30
  %25 = icmp ugt i64 %23, %24
  br i1 %25, label %26, label %28

26:                                               ; preds = %22
  %27 = load i64, ptr %6, align 8, !tbaa !30
  br label %30

28:                                               ; preds = %22
  %29 = load i64, ptr %7, align 8, !tbaa !30
  br label %30

30:                                               ; preds = %28, %26
  %31 = phi i64 [ %27, %26 ], [ %29, %28 ]
  store i64 %31, ptr %6, align 8, !tbaa !30
  %32 = load i64, ptr %6, align 8, !tbaa !30
  %33 = sub i64 %32, 1
  store i64 %33, ptr %6, align 8, !tbaa !30
  %34 = load i64, ptr %6, align 8, !tbaa !30
  %35 = lshr i64 %34, 3
  store i64 %35, ptr %6, align 8, !tbaa !30
  br label %36

36:                                               ; preds = %39, %30
  %37 = load i64, ptr %6, align 8, !tbaa !30
  %38 = icmp ne i64 %37, 0
  br i1 %38, label %39, label %44

39:                                               ; preds = %36
  %40 = load i64, ptr %6, align 8, !tbaa !30
  %41 = lshr i64 %40, 1
  store i64 %41, ptr %6, align 8, !tbaa !30
  %42 = load i32, ptr %8, align 4, !tbaa !36
  %43 = add nsw i32 %42, 1
  store i32 %43, ptr %8, align 4, !tbaa !36
  br label %36, !llvm.loop !42

44:                                               ; preds = %36
  %45 = load i32, ptr %8, align 4, !tbaa !36
  store i32 %45, ptr %4, align 4
  call void @llvm.lifetime.end.p0(i64 4, ptr %8) #3
  br label %46

46:                                               ; preds = %44, %19
  %47 = load i32, ptr %4, align 4
  ret i32 %47
}

; Function Attrs: mustprogress uwtable
define dso_local void @_ZNSt3__13pmr28unsynchronized_pool_resource13do_deallocateEPvmm(ptr noundef nonnull align 8 dereferenceable(40) %0, ptr noundef %1, i64 noundef %2, i64 noundef %3) unnamed_addr #5 align 2 {
  %5 = alloca ptr, align 8
  %6 = alloca ptr, align 8
  %7 = alloca i64, align 8
  %8 = alloca i64, align 8
  %9 = alloca i32, align 4
  %10 = alloca i32, align 4
  store ptr %0, ptr %5, align 8, !tbaa !34
  store ptr %1, ptr %6, align 8, !tbaa !29
  store i64 %2, ptr %7, align 8, !tbaa !30
  store i64 %3, ptr %8, align 8, !tbaa !30
  %11 = load ptr, ptr %5, align 8
  call void @llvm.lifetime.start.p0(i64 4, ptr %9) #3
  %12 = load i64, ptr %7, align 8, !tbaa !30
  %13 = load i64, ptr %8, align 8, !tbaa !30
  %14 = call noundef i32 @_ZNKSt3__13pmr28unsynchronized_pool_resource12__pool_indexEmm(ptr noundef nonnull align 8 dereferenceable(40) %11, i64 noundef %12, i64 noundef %13)
  store i32 %14, ptr %9, align 4, !tbaa !36
  %15 = load i32, ptr %9, align 4, !tbaa !36
  %16 = getelementptr inbounds nuw %"class.std::__1::pmr::unsynchronized_pool_resource", ptr %11, i32 0, i32 4
  %17 = load i32, ptr %16, align 8, !tbaa !38
  %18 = icmp eq i32 %15, %17
  br i1 %18, label %19, label %26

19:                                               ; preds = %4
  %20 = getelementptr inbounds nuw %"class.std::__1::pmr::unsynchronized_pool_resource", ptr %11, i32 0, i32 2
  %21 = getelementptr inbounds nuw %"class.std::__1::pmr::unsynchronized_pool_resource", ptr %11, i32 0, i32 1
  %22 = load ptr, ptr %21, align 8, !tbaa !45
  %23 = load ptr, ptr %6, align 8, !tbaa !29
  %24 = load i64, ptr %7, align 8, !tbaa !30
  %25 = load i64, ptr %8, align 8, !tbaa !30
  call void @_ZNSt3__13pmr28unsynchronized_pool_resource12__adhoc_pool15__do_deallocateEPNS0_15memory_resourceEPvmm(ptr noundef nonnull align 8 dereferenceable(8) %20, ptr noundef %22, ptr noundef %23, i64 noundef %24, i64 noundef %25)
  store i32 1, ptr %10, align 4
  br label %34

26:                                               ; preds = %4
  %27 = getelementptr inbounds nuw %"class.std::__1::pmr::unsynchronized_pool_resource", ptr %11, i32 0, i32 3
  %28 = load ptr, ptr %27, align 8, !tbaa !46
  %29 = load i32, ptr %9, align 4, !tbaa !36
  %30 = sext i32 %29 to i64
  %31 = getelementptr inbounds %"class.std::__1::pmr::unsynchronized_pool_resource::__fixed_pool", ptr %28, i64 %30
  %32 = load ptr, ptr %6, align 8, !tbaa !29
  call void @_ZNSt3__13pmr28unsynchronized_pool_resource12__fixed_pool10__evacuateEPv(ptr noundef nonnull align 8 dereferenceable(16) %31, ptr noundef %32)
  br label %33

33:                                               ; preds = %26
  store i32 0, ptr %10, align 4
  br label %34

34:                                               ; preds = %33, %19
  call void @llvm.lifetime.end.p0(i64 4, ptr %9) #3
  %35 = load i32, ptr %10, align 4
  switch i32 %35, label %37 [
    i32 0, label %36
    i32 1, label %36
  ]

36:                                               ; preds = %34, %34
  ret void

37:                                               ; preds = %34
  unreachable
}