; Function Attrs: mustprogress uwtable
define dso_local void @_ZNSt3__13pmr28unsynchronized_pool_resource13do_deallocateEPvmm(ptr noundef nonnull align 8 captures(none) dereferenceable(40) %0, ptr noundef %1, i64 noundef %2, i64 noundef %3) unnamed_addr #4 align 2 {
  %5 = icmp ugt i64 %3, 16
  %.phi.trans.insert.i = getelementptr inbounds nuw i8, ptr %0, i64 32
  %.pre.i = load i32, ptr %.phi.trans.insert.i, align 8, !tbaa !22
  %6 = zext nneg i32 %.pre.i to i64
  %7 = shl nuw i64 1, %6
  %8 = icmp ugt i64 %2, %7
  %or.cond.i = select i1 %5, i1 true, i1 %8
  br i1 %or.cond.i, label %_ZNKSt3__13pmr28unsynchronized_pool_resource12__pool_indexEmm.exit.thread, label %9

9:                                                ; preds = %4
  %10 = tail call i64 @llvm.umax.i64(i64 %2, i64 %3)
  %11 = add i64 %10, -1
  %.not17.i = icmp ult i64 %11, 8
  br i1 %.not17.i, label %_ZNKSt3__13pmr28unsynchronized_pool_resource12__pool_indexEmm.exit, label %.lr.ph.preheader.i

.lr.ph.preheader.i:                               ; preds = %9
  %12 = lshr i64 %11, 3
  br label %.lr.ph.i

.lr.ph.i:                                         ; preds = %.lr.ph.i, %.lr.ph.preheader.i
  %.019.i = phi i32 [ %14, %.lr.ph.i ], [ 0, %.lr.ph.preheader.i ]
  %.01418.i = phi i64 [ %13, %.lr.ph.i ], [ %12, %.lr.ph.preheader.i ]
  %13 = lshr i64 %.01418.i, 1
  %14 = add nuw nsw i32 %.019.i, 1
  %.not.i = icmp samesign ult i64 %.01418.i, 2
  br i1 %.not.i, label %_ZNKSt3__13pmr28unsynchronized_pool_resource12__pool_indexEmm.exit, label %.lr.ph.i, !llvm.loop !28

_ZNKSt3__13pmr28unsynchronized_pool_resource12__pool_indexEmm.exit: ; preds = %.lr.ph.i, %9
  %.013.i = phi i32 [ 0, %9 ], [ %14, %.lr.ph.i ]
  %15 = icmp eq i32 %.013.i, %.pre.i
  br i1 %15, label %_ZNKSt3__13pmr28unsynchronized_pool_resource12__pool_indexEmm.exit.thread, label %37

_ZNKSt3__13pmr28unsynchronized_pool_resource12__pool_indexEmm.exit.thread: ; preds = %4, %_ZNKSt3__13pmr28unsynchronized_pool_resource12__pool_indexEmm.exit
  %16 = getelementptr inbounds nuw i8, ptr %0, i64 16
  %17 = getelementptr inbounds nuw i8, ptr %0, i64 8
  %18 = load ptr, ptr %17, align 8, !tbaa !29
  %19 = load ptr, ptr %16, align 8, !tbaa !4
  %20 = getelementptr inbounds nuw i8, ptr %19, i64 8
  %21 = load ptr, ptr %20, align 8, !tbaa !14
  %22 = icmp eq ptr %21, %1
  br i1 %22, label %.loopexit.sink.split.i, label %.preheader.i

.preheader.i:                                     ; preds = %_ZNKSt3__13pmr28unsynchronized_pool_resource12__pool_indexEmm.exit.thread, %24
  %.0.i = phi ptr [ %23, %24 ], [ %19, %_ZNKSt3__13pmr28unsynchronized_pool_resource12__pool_indexEmm.exit.thread ]
  %23 = load ptr, ptr %.0.i, align 8, !tbaa !10
  %.not.i8 = icmp eq ptr %23, null
  br i1 %.not.i8, label %_ZNSt3__13pmr28unsynchronized_pool_resource12__adhoc_pool15__do_deallocateEPNS0_15memory_resourceEPvmm.exit, label %24

24:                                               ; preds = %.preheader.i
  %25 = getelementptr inbounds nuw i8, ptr %23, i64 8
  %26 = load ptr, ptr %25, align 8, !tbaa !14
  %27 = icmp eq ptr %26, %1
  br i1 %27, label %.loopexit.sink.split.i, label %.preheader.i, !llvm.loop !20

.loopexit.sink.split.i:                           ; preds = %24, %_ZNKSt3__13pmr28unsynchronized_pool_resource12__pool_indexEmm.exit.thread
  %.lcssa25.sink37.i = phi ptr [ %19, %_ZNKSt3__13pmr28unsynchronized_pool_resource12__pool_indexEmm.exit.thread ], [ %23, %24 ]
  %.0.lcssa26.sink.i = phi ptr [ %16, %_ZNKSt3__13pmr28unsynchronized_pool_resource12__pool_indexEmm.exit.thread ], [ %.0.i, %24 ]
  %28 = load ptr, ptr %.lcssa25.sink37.i, align 8, !tbaa !10
  %29 = ptrtoint ptr %.lcssa25.sink37.i to i64
  %30 = ptrtoint ptr %1 to i64
  %reass.sub = sub i64 %29, %30
  %31 = add i64 %reass.sub, 24
  %32 = getelementptr inbounds nuw i8, ptr %.lcssa25.sink37.i, i64 16
  %33 = load i64, ptr %32, align 8, !tbaa !15
  %34 = load ptr, ptr %18, align 8, !tbaa !16
  %35 = getelementptr inbounds nuw i8, ptr %34, i64 24
  %36 = load ptr, ptr %35, align 8
  tail call void %36(ptr noundef nonnull align 8 dereferenceable(8) %18, ptr noundef nonnull %1, i64 noundef %31, i64 noundef %33)
  store ptr %28, ptr %.0.lcssa26.sink.i, align 8, !tbaa !21
  br label %_ZNSt3__13pmr28unsynchronized_pool_resource12__adhoc_pool15__do_deallocateEPNS0_15memory_resourceEPvmm.exit

37:                                               ; preds = %_ZNKSt3__13pmr28unsynchronized_pool_resource12__pool_indexEmm.exit
  %38 = getelementptr inbounds nuw i8, ptr %0, i64 24
  %39 = load ptr, ptr %38, align 8, !tbaa !35
  %40 = sext i32 %.013.i to i64
  %41 = getelementptr inbounds %"class.std::__1::pmr::unsynchronized_pool_resource::__fixed_pool", ptr %39, i64 %40, i32 1
  %42 = load ptr, ptr %41, align 8, !tbaa !36
  store ptr %42, ptr %1, align 8, !tbaa !47
  store ptr %1, ptr %41, align 8, !tbaa !36
  br label %_ZNSt3__13pmr28unsynchronized_pool_resource12__adhoc_pool15__do_deallocateEPNS0_15memory_resourceEPvmm.exit

_ZNSt3__13pmr28unsynchronized_pool_resource12__adhoc_pool15__do_deallocateEPNS0_15memory_resourceEPvmm.exit: ; preds = %.preheader.i, %.loopexit.sink.split.i, %37
  ret void
}